; Function Attrs: mustprogress nofree norecurse nosync nounwind willreturn memory(read, inaccessiblemem: none) uwtable
define internal noundef ptr @_ZNK12_GLOBAL__N_113tactic2solver13get_assertionEj(ptr noundef nonnull readonly align 8 captures(none) dereferenceable(225) %0, i32 noundef %1) unnamed_addr #10 align 2 {
  %3 = getelementptr inbounds nuw i8, ptr %0, i64 152
  %4 = load i32, ptr %3, align 8, !tbaa !14
  %.not = icmp eq i32 %4, 0
  %5 = getelementptr inbounds nuw i8, ptr %0, i64 144
  %6 = load ptr, ptr %5, align 8
  %7 = zext i32 %1 to i64
  %8 = getelementptr inbounds nuw i8, ptr %0, i64 128
  %9 = load ptr, ptr %8, align 8
  %.in.v = select i1 %.not, ptr %9, ptr %6
  %.in = getelementptr inbounds nuw ptr, ptr %.in.v, i64 %7
  %10 = load ptr, ptr %.in, align 8, !tbaa !69
  ret ptr %10
}